target datalayout = "e-m:e-p270:32:32-p271:32:32-p272:64:64-i64:64-i128:128-f80:128-n8:16:32:64-S128"
target triple = "x86_64-pc-linux-gnu"

%"class.gmx::BiasState" = type { %"class.gmx::CoordState", %"class.std::vector", %"class.std::vector.0", %"class.gmx::HistogramSize", [4 x i32], [4 x i32], ptr, %"class.std::vector.5", %"class.std::vector.7" }
%"class.gmx::CoordState" = type { [4 x double], i32, i32 }
%"class.std::vector" = type { %"struct.std::_Vector_base" }
%"struct.std::_Vector_base" = type { %"struct.std::_Vector_base<gmx::PointState, std::allocator<gmx::PointState>>::_Vector_impl" }
%"struct.std::_Vector_base<gmx::PointState, std::allocator<gmx::PointState>>::_Vector_impl" = type { %"struct.std::_Vector_base<gmx::PointState, std::allocator<gmx::PointState>>::_Vector_impl_data" }
%"struct.std::_Vector_base<gmx::PointState, std::allocator<gmx::PointState>>::_Vector_impl_data" = type { ptr, ptr, ptr }
%"class.std::vector.0" = type { %"struct.std::_Vector_base.1" }
%"struct.std::_Vector_base.1" = type { %"struct.std::_Vector_base<double, std::allocator<double>>::_Vector_impl" }
%"struct.std::_Vector_base<double, std::allocator<double>>::_Vector_impl" = type { %"struct.std::_Vector_base<double, std::allocator<double>>::_Vector_impl_data" }
%"struct.std::_Vector_base<double, std::allocator<double>>::_Vector_impl_data" = type { ptr, ptr, ptr }
%"class.gmx::HistogramSize" = type <{ i64, double, i8, [7 x i8], double, i8, [7 x i8], double, double, i8, [7 x i8] }>
%"class.std::vector.5" = type { %"struct.std::_Vector_base.6" }
%"struct.std::_Vector_base.6" = type { %"struct.std::_Vector_base<double, gmx::DefaultInitializationAllocator<double>>::_Vector_impl" }
%"struct.std::_Vector_base<double, gmx::DefaultInitializationAllocator<double>>::_Vector_impl" = type { %"struct.std::_Vector_base<double, gmx::DefaultInitializationAllocator<double>>::_Vector_impl_data" }
%"struct.std::_Vector_base<double, gmx::DefaultInitializationAllocator<double>>::_Vector_impl_data" = type { ptr, ptr, ptr }
%"class.std::vector.7" = type { %"struct.std::_Vector_base.8" }
%"struct.std::_Vector_base.8" = type { %"struct.std::_Vector_base<std::vector<double>, std::allocator<std::vector<double>>>::_Vector_impl" }
%"struct.std::_Vector_base<std::vector<double>, std::allocator<std::vector<double>>>::_Vector_impl" = type { %"struct.std::_Vector_base<std::vector<double>, std::allocator<std::vector<double>>>::_Vector_impl_data" }
%"struct.std::_Vector_base<std::vector<double>, std::allocator<std::vector<double>>>::_Vector_impl_data" = type { ptr, ptr, ptr }
%"class.gmx::PointState" = type { double, double, double, double, double, double, double, i64, double, double, double, double }
%"struct.gmx::AwhBiasHistory" = type { %"class.std::vector.122", %"struct.gmx::AwhBiasStateHistory", %"struct.gmx::CorrelationGridHistory" }
%"class.std::vector.122" = type { %"struct.std::_Vector_base.123" }
%"struct.std::_Vector_base.123" = type { %"struct.std::_Vector_base<gmx::AwhPointStateHistory, std::allocator<gmx::AwhPointStateHistory>>::_Vector_impl" }
%"struct.std::_Vector_base<gmx::AwhPointStateHistory, std::allocator<gmx::AwhPointStateHistory>>::_Vector_impl" = type { %"struct.std::_Vector_base<gmx::AwhPointStateHistory, std::allocator<gmx::AwhPointStateHistory>>::_Vector_impl_data" }
%"struct.std::_Vector_base<gmx::AwhPointStateHistory, std::allocator<gmx::AwhPointStateHistory>>::_Vector_impl_data" = type { ptr, ptr, ptr }
%"struct.gmx::AwhBiasStateHistory" = type { i32, i32, i32, i8, i8, double, double, double, i64 }
%"struct.gmx::CorrelationGridHistory" = type { i32, i32, i32, %"class.std::vector.127" }
%"class.std::vector.127" = type { %"struct.std::_Vector_base.128" }
%"struct.std::_Vector_base.128" = type { %"struct.std::_Vector_base<gmx::CorrelationBlockDataHistory, std::allocator<gmx::CorrelationBlockDataHistory>>::_Vector_impl" }
%"struct.std::_Vector_base<gmx::CorrelationBlockDataHistory, std::allocator<gmx::CorrelationBlockDataHistory>>::_Vector_impl" = type { %"struct.std::_Vector_base<gmx::CorrelationBlockDataHistory, std::allocator<gmx::CorrelationBlockDataHistory>>::_Vector_impl_data" }
%"struct.std::_Vector_base<gmx::CorrelationBlockDataHistory, std::allocator<gmx::CorrelationBlockDataHistory>>::_Vector_impl_data" = type { ptr, ptr, ptr }
%"struct.gmx::AwhPointStateHistory" = type { double, double, double, double, double, double, double, i64, double, double, double, double }
%class.anon.132 = type { i8 }

@.str.3 = private unnamed_addr constant [138 x i8] c"generated/home/dtcxzyw/WorkSpace/Projects/compilers/llvm-opt-benchmark/bench/gromacs/gromacs/src/gromacs/applied_forces/awh/biasstate.cpp\00", align 1
@.str.38 = private unnamed_addr constant [49 x i8] c"biasHistory->pointState.size() == points_.size()\00", align 1
@.str.39 = private unnamed_addr constant [52 x i8] c"The AWH history setup does not match the AWH state.\00", align 1
@"__PRETTY_FUNCTION__._ZZNK3gmx9BiasState13updateHistoryEPNS_14AwhBiasHistoryERKNS_8BiasGridEENK3$_0clEv" = private unnamed_addr constant [110 x i8] c"auto gmx::BiasState::updateHistory(AwhBiasHistory *, const BiasGrid &)::(anonymous class)::operator()() const\00", align 1

; Function Attrs: mustprogress nounwind uwtable
define linkonce_odr noundef nonnull align 8 dereferenceable(8) ptr @_ZNKSt6vectorIdSaIdEEixEm(ptr noundef nonnull align 8 dereferenceable(24) %0, i64 noundef %1) #2 comdat align 2 {
  %3 = alloca ptr, align 8
  %4 = alloca i64, align 8
  store ptr %0, ptr %3, align 8, !tbaa !251
  store i64 %1, ptr %4, align 8, !tbaa !9
  %5 = load ptr, ptr %3, align 8
  %6 = getelementptr inbounds nuw %"struct.std::_Vector_base.1", ptr %5, i32 0, i32 0
  %7 = getelementptr inbounds nuw %"struct.std::_Vector_base<double, std::allocator<double>>::_Vector_impl_data", ptr %6, i32 0, i32 0
  %8 = load ptr, ptr %7, align 8, !tbaa !253
  %9 = load i64, ptr %4, align 8, !tbaa !9
  %10 = getelementptr inbounds nuw double, ptr %8, i64 %9
  ret ptr %10
}

; Function Attrs: mustprogress nounwind uwtable
define linkonce_odr void @_ZNK3gmx10PointState10storeStateEPNS_20AwhPointStateHistoryE(ptr noundef nonnull align 8 dereferenceable(96) %0, ptr noundef %1) #2 comdat align 2 {
  %3 = alloca ptr, align 8
  %4 = alloca ptr, align 8
  store ptr %0, ptr %3, align 8, !tbaa !21
  store ptr %1, ptr %4, align 8, !tbaa !625
  %5 = load ptr, ptr %3, align 8
  %6 = getelementptr inbounds nuw %"class.gmx::PointState", ptr %5, i32 0, i32 2
  %7 = load double, ptr %6, align 8, !tbaa !22
  %8 = load ptr, ptr %4, align 8, !tbaa !625
  %9 = getelementptr inbounds nuw %"struct.gmx::AwhPointStateHistory", ptr %8, i32 0, i32 2
  store double %7, ptr %9, align 8, !tbaa !645
  %10 = getelementptr inbounds nuw %"class.gmx::PointState", ptr %5, i32 0, i32 1
  %11 = load double, ptr %10, align 8, !tbaa !290
  %12 = load ptr, ptr %4, align 8, !tbaa !625
  %13 = getelementptr inbounds nuw %"struct.gmx::AwhPointStateHistory", ptr %12, i32 0, i32 1
  store double %11, ptr %13, align 8, !tbaa !646
  %14 = getelementptr inbounds nuw %"class.gmx::PointState", ptr %5, i32 0, i32 0
  %15 = load double, ptr %14, align 8, !tbaa !388
  %16 = load ptr, ptr %4, align 8, !tbaa !625
  %17 = getelementptr inbounds nuw %"struct.gmx::AwhPointStateHistory", ptr %16, i32 0, i32 0
  store double %15, ptr %17, align 8, !tbaa !647
  %18 = getelementptr inbounds nuw %"class.gmx::PointState", ptr %5, i32 0, i32 4
  %19 = load double, ptr %18, align 8, !tbaa !525
  %20 = load ptr, ptr %4, align 8, !tbaa !625
  %21 = getelementptr inbounds nuw %"struct.gmx::AwhPointStateHistory", ptr %20, i32 0, i32 3
  store double %19, ptr %21, align 8, !tbaa !648
  %22 = getelementptr inbounds nuw %"class.gmx::PointState", ptr %5, i32 0, i32 5
  %23 = load double, ptr %22, align 8, !tbaa !275
  %24 = load ptr, ptr %4, align 8, !tbaa !625
  %25 = getelementptr inbounds nuw %"struct.gmx::AwhPointStateHistory", ptr %24, i32 0, i32 5
  store double %23, ptr %25, align 8, !tbaa !649
  %26 = getelementptr inbounds nuw %"class.gmx::PointState", ptr %5, i32 0, i32 6
  %27 = load double, ptr %26, align 8, !tbaa !292
  %28 = load ptr, ptr %4, align 8, !tbaa !625
  %29 = getelementptr inbounds nuw %"struct.gmx::AwhPointStateHistory", ptr %28, i32 0, i32 6
  store double %27, ptr %29, align 8, !tbaa !650
  %30 = getelementptr inbounds nuw %"class.gmx::PointState", ptr %5, i32 0, i32 7
  %31 = load i64, ptr %30, align 8, !tbaa !385
  %32 = load ptr, ptr %4, align 8, !tbaa !625
  %33 = getelementptr inbounds nuw %"struct.gmx::AwhPointStateHistory", ptr %32, i32 0, i32 7
  store i64 %31, ptr %33, align 8, !tbaa !651
  %34 = getelementptr inbounds nuw %"class.gmx::PointState", ptr %5, i32 0, i32 8
  %35 = load double, ptr %34, align 8, !tbaa !25
  %36 = load ptr, ptr %4, align 8, !tbaa !625
  %37 = getelementptr inbounds nuw %"struct.gmx::AwhPointStateHistory", ptr %36, i32 0, i32 8
  store double %35, ptr %37, align 8, !tbaa !652
  %38 = getelementptr inbounds nuw %"class.gmx::PointState", ptr %5, i32 0, i32 9
  %39 = load double, ptr %38, align 8, !tbaa !526
  %40 = load ptr, ptr %4, align 8, !tbaa !625
  %41 = getelementptr inbounds nuw %"struct.gmx::AwhPointStateHistory", ptr %40, i32 0, i32 9
  store double %39, ptr %41, align 8, !tbaa !653
  %42 = getelementptr inbounds nuw %"class.gmx::PointState", ptr %5, i32 0, i32 10
  %43 = load double, ptr %42, align 8, !tbaa !343
  %44 = load ptr, ptr %4, align 8, !tbaa !625
  %45 = getelementptr inbounds nuw %"struct.gmx::AwhPointStateHistory", ptr %44, i32 0, i32 10
  store double %43, ptr %45, align 8, !tbaa !654
  %46 = getelementptr inbounds nuw %"class.gmx::PointState", ptr %5, i32 0, i32 11
  %47 = load double, ptr %46, align 8, !tbaa !534
  %48 = load ptr, ptr %4, align 8, !tbaa !625
  %49 = getelementptr inbounds nuw %"struct.gmx::AwhPointStateHistory", ptr %48, i32 0, i32 11
  store double %47, ptr %49, align 8, !tbaa !655
  ret void
}

; Function Attrs: mustprogress nounwind uwtable
define linkonce_odr noundef nonnull align 8 dereferenceable(96) ptr @_ZNKSt6vectorIN3gmx10PointStateESaIS1_EEixEm(ptr noundef nonnull align 8 dereferenceable(24) %0, i64 noundef %1) #2 comdat align 2 {
  %3 = alloca ptr, align 8
  %4 = alloca i64, align 8
  store ptr %0, ptr %3, align 8, !tbaa !15
  store i64 %1, ptr %4, align 8, !tbaa !9
  %5 = load ptr, ptr %3, align 8
  %6 = getelementptr inbounds nuw %"struct.std::_Vector_base", ptr %5, i32 0, i32 0
  %7 = getelementptr inbounds nuw %"struct.std::_Vector_base<gmx::PointState, std::allocator<gmx::PointState>>::_Vector_impl_data", ptr %6, i32 0, i32 0
  %8 = load ptr, ptr %7, align 8, !tbaa !20
  %9 = load i64, ptr %4, align 8, !tbaa !9
  %10 = getelementptr inbounds nuw %"class.gmx::PointState", ptr %8, i64 %9
  ret ptr %10
}

; Function Attrs: mustprogress nounwind uwtable
define linkonce_odr noundef nonnull align 8 dereferenceable(96) ptr @_ZNSt6vectorIN3gmx20AwhPointStateHistoryESaIS1_EEixEm(ptr noundef nonnull align 8 dereferenceable(24) %0, i64 noundef %1) #2 comdat align 2 {
  %3 = alloca ptr, align 8
  %4 = alloca i64, align 8
  store ptr %0, ptr %3, align 8, !tbaa !618
  store i64 %1, ptr %4, align 8, !tbaa !9
  %5 = load ptr, ptr %3, align 8
  %6 = getelementptr inbounds nuw %"struct.std::_Vector_base.123", ptr %5, i32 0, i32 0
  %7 = getelementptr inbounds nuw %"struct.std::_Vector_base<gmx::AwhPointStateHistory, std::allocator<gmx::AwhPointStateHistory>>::_Vector_impl_data", ptr %6, i32 0, i32 0
  %8 = load ptr, ptr %7, align 8, !tbaa !620
  %9 = load i64, ptr %4, align 8, !tbaa !9
  %10 = getelementptr inbounds nuw %"struct.gmx::AwhPointStateHistory", ptr %8, i64 %9
  ret ptr %10
}

; Function Attrs: mustprogress nounwind uwtable
define linkonce_odr noundef i32 @_ZNK3gmx10CoordState17umbrellaGridpointEv(ptr noundef nonnull align 8 dereferenceable(40) %0) #2 comdat align 2 {
  %2 = alloca ptr, align 8
  store ptr %0, ptr %2, align 8, !tbaa !367
  %3 = load ptr, ptr %2, align 8
  %4 = getelementptr inbounds nuw %"class.gmx::CoordState", ptr %3, i32 0, i32 2
  %5 = load i32, ptr %4, align 4, !tbaa !380
  ret i32 %5
}

; Function Attrs: inlinehint mustprogress uwtable
define internal void @"_ZZNK3gmx9BiasState13updateHistoryEPNS_14AwhBiasHistoryERKNS_8BiasGridEENK3$_0clEv"(ptr noundef nonnull align 1 dereferenceable(1) %0) #7 align 2 {
  %2 = alloca ptr, align 8
  store ptr %0, ptr %2, align 8, !tbaa !72
  call void @_ZN3gmx8internal13assertHandlerEPKcS2_S2_S2_i(ptr noundef @.str.38, ptr noundef @.str.39, ptr noundef @"__PRETTY_FUNCTION__._ZZNK3gmx9BiasState13updateHistoryEPNS_14AwhBiasHistoryERKNS_8BiasGridEENK3$_0clEv", ptr noundef @.str.3, i32 noundef 1570) #29
  unreachable
}

; Function Attrs: mustprogress nounwind uwtable
define linkonce_odr noundef i64 @_ZNKSt6vectorIN3gmx10PointStateESaIS1_EE4sizeEv(ptr noundef nonnull align 8 dereferenceable(24) %0) #2 comdat align 2 {
  %2 = alloca ptr, align 8
  store ptr %0, ptr %2, align 8, !tbaa !15
  %3 = load ptr, ptr %2, align 8
  %4 = getelementptr inbounds nuw %"struct.std::_Vector_base", ptr %3, i32 0, i32 0
  %5 = getelementptr inbounds nuw %"struct.std::_Vector_base<gmx::PointState, std::allocator<gmx::PointState>>::_Vector_impl_data", ptr %4, i32 0, i32 1
  %6 = load ptr, ptr %5, align 8, !tbaa !17
  %7 = getelementptr inbounds nuw %"struct.std::_Vector_base", ptr %3, i32 0, i32 0
  %8 = getelementptr inbounds nuw %"struct.std::_Vector_base<gmx::PointState, std::allocator<gmx::PointState>>::_Vector_impl_data", ptr %7, i32 0, i32 0
  %9 = load ptr, ptr %8, align 8, !tbaa !20
  %10 = ptrtoint ptr %6 to i64
  %11 = ptrtoint ptr %9 to i64
  %12 = sub i64 %10, %11
  %13 = sdiv exact i64 %12, 96
  ret i64 %13
}

; Function Attrs: mustprogress nounwind uwtable
define linkonce_odr noundef i64 @_ZNKSt6vectorIN3gmx20AwhPointStateHistoryESaIS1_EE4sizeEv(ptr noundef nonnull align 8 dereferenceable(24) %0) #2 comdat align 2 {
  %2 = alloca ptr, align 8
  store ptr %0, ptr %2, align 8, !tbaa !618
  %3 = load ptr, ptr %2, align 8
  %4 = getelementptr inbounds nuw %"struct.std::_Vector_base.123", ptr %3, i32 0, i32 0
  %5 = getelementptr inbounds nuw %"struct.std::_Vector_base<gmx::AwhPointStateHistory, std::allocator<gmx::AwhPointStateHistory>>::_Vector_impl_data", ptr %4, i32 0, i32 1
  %6 = load ptr, ptr %5, align 8, !tbaa !623
  %7 = getelementptr inbounds nuw %"struct.std::_Vector_base.123", ptr %3, i32 0, i32 0
  %8 = getelementptr inbounds nuw %"struct.std::_Vector_base<gmx::AwhPointStateHistory, std::allocator<gmx::AwhPointStateHistory>>::_Vector_impl_data", ptr %7, i32 0, i32 0
  %9 = load ptr, ptr %8, align 8, !tbaa !620
  %10 = ptrtoint ptr %6 to i64
  %11 = ptrtoint ptr %9 to i64
  %12 = sub i64 %10, %11
  %13 = sdiv exact i64 %12, 96
  ret i64 %13
}

; Function Attrs: mustprogress uwtable
define void @_ZNK3gmx9BiasState13updateHistoryEPNS_14AwhBiasHistoryERKNS_8BiasGridE(ptr noundef nonnull align 8 dereferenceable(240) %0, ptr noundef %1, ptr noundef nonnull align 8 dereferenceable(48) %2) #0 align 2 {
  %4 = alloca ptr, align 8
  %5 = alloca ptr, align 8
  %6 = alloca ptr, align 8
  %7 = alloca %class.anon.132, align 1
  %8 = alloca ptr, align 8
  %9 = alloca i64, align 8
  %10 = alloca ptr, align 8
  store ptr %0, ptr %4, align 8, !tbaa !4
  store ptr %1, ptr %5, align 8, !tbaa !616
  store ptr %2, ptr %6, align 8, !tbaa !35
  %11 = load ptr, ptr %4, align 8
  %12 = load ptr, ptr %5, align 8, !tbaa !616
  %13 = getelementptr inbounds nuw %"struct.gmx::AwhBiasHistory", ptr %12, i32 0, i32 0
  %14 = call noundef i64 @_ZNKSt6vectorIN3gmx20AwhPointStateHistoryESaIS1_EE4sizeEv(ptr noundef nonnull align 8 dereferenceable(24) %13) #28
  %15 = getelementptr inbounds nuw %"class.gmx::BiasState", ptr %11, i32 0, i32 1
  %16 = call noundef i64 @_ZNKSt6vectorIN3gmx10PointStateESaIS1_EE4sizeEv(ptr noundef nonnull align 8 dereferenceable(24) %15) #28
  %17 = icmp eq i64 %14, %16
  call void @llvm.lifetime.start.p0(i64 1, ptr %7) #28
  br i1 %17, label %18, label %19

18:                                               ; preds = %3
  br label %20

19:                                               ; preds = %3
  call void @"_ZZNK3gmx9BiasState13updateHistoryEPNS_14AwhBiasHistoryERKNS_8BiasGridEENK3$_0clEv"(ptr noundef nonnull align 1 dereferenceable(1) %7)
  br label %20

20:                                               ; preds = %19, %18
  call void @llvm.lifetime.end.p0(i64 1, ptr %7) #28
  call void @llvm.lifetime.start.p0(i64 8, ptr %8) #28
  %21 = load ptr, ptr %5, align 8, !tbaa !616
  %22 = getelementptr inbounds nuw %"struct.gmx::AwhBiasHistory", ptr %21, i32 0, i32 1
  store ptr %22, ptr %8, align 8, !tbaa !636
  %23 = getelementptr inbounds nuw %"class.gmx::BiasState", ptr %11, i32 0, i32 0
  %24 = call noundef i32 @_ZNK3gmx10CoordState17umbrellaGridpointEv(ptr noundef nonnull align 8 dereferenceable(40) %23)
  %25 = load ptr, ptr %8, align 8, !tbaa !636
  %26 = getelementptr inbounds nuw %"struct.gmx::AwhBiasStateHistory", ptr %25, i32 0, i32 0
  store i32 %24, ptr %26, align 8, !tbaa !638
  call void @llvm.lifetime.start.p0(i64 8, ptr %9) #28
  store i64 0, ptr %9, align 8, !tbaa !9
  br label %27

27:                                               ; preds = %49, %20
  %28 = load i64, ptr %9, align 8, !tbaa !9
  %29 = load ptr, ptr %5, align 8, !tbaa !616
  %30 = getelementptr inbounds nuw %"struct.gmx::AwhBiasHistory", ptr %29, i32 0, i32 0
  %31 = call noundef i64 @_ZNKSt6vectorIN3gmx20AwhPointStateHistoryESaIS1_EE4sizeEv(ptr noundef nonnull align 8 dereferenceable(24) %30) #28
  %32 = icmp ult i64 %28, %31
  br i1 %32, label %34, label %33

33:                                               ; preds = %27
  call void @llvm.lifetime.end.p0(i64 8, ptr %9) #28
  br label %52

34:                                               ; preds = %27
  call void @llvm.lifetime.start.p0(i64 8, ptr %10) #28
  %35 = load ptr, ptr %5, align 8, !tbaa !616
  %36 = getelementptr inbounds nuw %"struct.gmx::AwhBiasHistory", ptr %35, i32 0, i32 0
  %37 = load i64, ptr %9, align 8, !tbaa !9
  %38 = call noundef nonnull align 8 dereferenceable(96) ptr @_ZNSt6vectorIN3gmx20AwhPointStateHistoryESaIS1_EEixEm(ptr noundef nonnull align 8 dereferenceable(24) %36, i64 noundef %37) #28
  store ptr %38, ptr %10, align 8, !tbaa !625
  %39 = getelementptr inbounds nuw %"class.gmx::BiasState", ptr %11, i32 0, i32 1
  %40 = load i64, ptr %9, align 8, !tbaa !9
  %41 = call noundef nonnull align 8 dereferenceable(96) ptr @_ZNKSt6vectorIN3gmx10PointStateESaIS1_EEixEm(ptr noundef nonnull align 8 dereferenceable(24) %39, i64 noundef %40) #28
  %42 = load ptr, ptr %10, align 8, !tbaa !625
  call void @_ZNK3gmx10PointState10storeStateEPNS_20AwhPointStateHistoryE(ptr noundef nonnull align 8 dereferenceable(96) %41, ptr noundef %42)
  %43 = getelementptr inbounds nuw %"class.gmx::BiasState", ptr %11, i32 0, i32 2
  %44 = load i64, ptr %9, align 8, !tbaa !9
  %45 = call noundef nonnull align 8 dereferenceable(8) ptr @_ZNKSt6vectorIdSaIdEEixEm(ptr noundef nonnull align 8 dereferenceable(24) %43, i64 noundef %44) #28
  %46 = load double, ptr %45, align 8, !tbaa !39
  %47 = load ptr, ptr %10, align 8, !tbaa !625
  %48 = getelementptr inbounds nuw %"struct.gmx::AwhPointStateHistory", ptr %47, i32 0, i32 4
  store double %46, ptr %48, align 8, !tbaa !640
  call void @llvm.lifetime.end.p0(i64 8, ptr %10) #28
  br label %49

49:                                               ; preds = %34
  %50 = load i64, ptr %9, align 8, !tbaa !9
  %51 = add i64 %50, 1
  store i64 %51, ptr %9, align 8, !tbaa !9
  br label %27, !llvm.loop !642

52:                                               ; preds = %33
  %53 = getelementptr inbounds nuw %"class.gmx::BiasState", ptr %11, i32 0, i32 3
  %54 = load ptr, ptr %8, align 8, !tbaa !636
  call void @_ZNK3gmx13HistogramSize10storeStateEPNS_19AwhBiasStateHistoryE(ptr noundef nonnull align 8 dereferenceable(57) %53, ptr noundef %54)
  %55 = load ptr, ptr %6, align 8, !tbaa !35
  %56 = getelementptr inbounds nuw %"class.gmx::BiasState", ptr %11, i32 0, i32 4
  %57 = getelementptr inbounds [4 x i32], ptr %56, i64 0, i64 0
  %58 = call noundef i32 @_ZN3gmx25multiDimGridIndexToLinearERKNS_8BiasGridEPKi(ptr noundef nonnull align 8 dereferenceable(48) %55, ptr noundef %57)
  %59 = load ptr, ptr %8, align 8, !tbaa !636
  %60 = getelementptr inbounds nuw %"struct.gmx::AwhBiasStateHistory", ptr %59, i32 0, i32 1
  store i32 %58, ptr %60, align 4, !tbaa !643
  %61 = load ptr, ptr %6, align 8, !tbaa !35
  %62 = getelementptr inbounds nuw %"class.gmx::BiasState", ptr %11, i32 0, i32 5
  %63 = getelementptr inbounds [4 x i32], ptr %62, i64 0, i64 0
  %64 = call noundef i32 @_ZN3gmx25multiDimGridIndexToLinearERKNS_8BiasGridEPKi(ptr noundef nonnull align 8 dereferenceable(48) %61, ptr noundef %63)
  %65 = load ptr, ptr %8, align 8, !tbaa !636
  %66 = getelementptr inbounds nuw %"struct.gmx::AwhBiasStateHistory", ptr %65, i32 0, i32 2
  store i32 %64, ptr %66, align 8, !tbaa !644
  call void @llvm.lifetime.end.p0(i64 8, ptr %8) #28
  ret void
}