; Function Attrs: mustprogress uwtable
define void @_ZNK3gmx9BiasState13updateHistoryEPNS_14AwhBiasHistoryERKNS_8BiasGridE(ptr noundef nonnull align 8 dereferenceable(240) %0, ptr noundef %1, ptr noundef nonnull align 8 dereferenceable(48) %2) local_unnamed_addr #3 align 2 {
  %4 = getelementptr inbounds nuw i8, ptr %1, i64 8
  %5 = load ptr, ptr %4, align 8, !tbaa !264
  %6 = load ptr, ptr %1, align 8, !tbaa !267
  %7 = ptrtoint ptr %5 to i64
  %8 = ptrtoint ptr %6 to i64
  %9 = sub i64 %7, %8
  %10 = sdiv exact i64 %9, 96
  %11 = getelementptr inbounds nuw i8, ptr %0, i64 40
  %12 = getelementptr inbounds nuw i8, ptr %0, i64 48
  %13 = load ptr, ptr %12, align 8, !tbaa !4
  %14 = load ptr, ptr %11, align 8, !tbaa !10
  %15 = ptrtoint ptr %13 to i64
  %16 = ptrtoint ptr %14 to i64
  %17 = sub i64 %15, %16
  %18 = icmp eq i64 %9, %17
  br i1 %18, label %20, label %19

19:                                               ; preds = %3
  tail call void @_ZN3gmx8internal13assertHandlerEPKcS2_S2_S2_i(ptr noundef nonnull @.str.38, ptr noundef nonnull @.str.39, ptr noundef nonnull @"__PRETTY_FUNCTION__._ZZNK3gmx9BiasState13updateHistoryEPNS_14AwhBiasHistoryERKNS_8BiasGridEENK3$_0clEv", ptr noundef nonnull @.str.3, i32 noundef 1570) #30
  unreachable

20:                                               ; preds = %3
  %21 = getelementptr inbounds nuw i8, ptr %1, i64 24
  %22 = getelementptr inbounds nuw i8, ptr %0, i64 36
  %23 = load i32, ptr %22, align 4, !tbaa !174
  store i32 %23, ptr %21, align 8, !tbaa !271
  %.not = icmp eq ptr %5, %6
  br i1 %.not, label %._crit_edge, label %.lr.ph

.lr.ph:                                           ; preds = %20
  %24 = getelementptr inbounds nuw i8, ptr %0, i64 64
  %25 = load ptr, ptr %24, align 8, !tbaa !89
  %umax = tail call i64 @llvm.umax.i64(i64 %10, i64 1)
  br label %33

._crit_edge:                                      ; preds = %33, %20
  %26 = getelementptr inbounds nuw i8, ptr %0, i64 88
  tail call void @_ZNK3gmx13HistogramSize10storeStateEPNS_19AwhBiasStateHistoryE(ptr noundef nonnull align 8 dereferenceable(57) %26, ptr noundef nonnull %21)
  %27 = getelementptr inbounds nuw i8, ptr %0, i64 152
  %28 = tail call noundef i32 @_ZN3gmx25multiDimGridIndexToLinearERKNS_8BiasGridEPKi(ptr noundef nonnull align 8 dereferenceable(48) %2, ptr noundef nonnull %27)
  %29 = getelementptr inbounds nuw i8, ptr %1, i64 28
  store i32 %28, ptr %29, align 4, !tbaa !273
  %30 = getelementptr inbounds nuw i8, ptr %0, i64 168
  %31 = tail call noundef i32 @_ZN3gmx25multiDimGridIndexToLinearERKNS_8BiasGridEPKi(ptr noundef nonnull align 8 dereferenceable(48) %2, ptr noundef nonnull %30)
  %32 = getelementptr inbounds nuw i8, ptr %1, i64 32
  store i32 %31, ptr %32, align 8, !tbaa !274
  ret void

33:                                               ; preds = %.lr.ph, %33
  %.017 = phi i64 [ 0, %.lr.ph ], [ %70, %33 ]
  %34 = getelementptr inbounds nuw %"struct.gmx::AwhPointStateHistory", ptr %6, i64 %.017
  %35 = getelementptr inbounds nuw %"class.gmx::PointState", ptr %14, i64 %.017
  %36 = getelementptr inbounds nuw i8, ptr %35, i64 16
  %37 = load double, ptr %36, align 8, !tbaa !11
  %38 = getelementptr inbounds nuw i8, ptr %34, i64 16
  store double %37, ptr %38, align 8, !tbaa !275
  %39 = getelementptr inbounds nuw i8, ptr %35, i64 8
  %40 = load double, ptr %39, align 8, !tbaa !99
  %41 = getelementptr inbounds nuw i8, ptr %34, i64 8
  store double %40, ptr %41, align 8, !tbaa !277
  %42 = load double, ptr %35, align 8, !tbaa !182
  store double %42, ptr %34, align 8, !tbaa !278
  %43 = getelementptr inbounds nuw i8, ptr %35, i64 32
  %44 = load double, ptr %43, align 8, !tbaa !223
  %45 = getelementptr inbounds nuw i8, ptr %34, i64 24
  store double %44, ptr %45, align 8, !tbaa !279
  %46 = getelementptr inbounds nuw i8, ptr %35, i64 40
  %47 = load double, ptr %46, align 8, !tbaa !82
  %48 = getelementptr inbounds nuw i8, ptr %34, i64 40
  store double %47, ptr %48, align 8, !tbaa !280
  %49 = getelementptr inbounds nuw i8, ptr %35, i64 48
  %50 = load double, ptr %49, align 8, !tbaa !102
  %51 = getelementptr inbounds nuw i8, ptr %34, i64 48
  store double %50, ptr %51, align 8, !tbaa !281
  %52 = getelementptr inbounds nuw i8, ptr %35, i64 56
  %53 = load i64, ptr %52, align 8, !tbaa !180
  %54 = getelementptr inbounds nuw i8, ptr %34, i64 56
  store i64 %53, ptr %54, align 8, !tbaa !282
  %55 = getelementptr inbounds nuw i8, ptr %35, i64 64
  %56 = load double, ptr %55, align 8, !tbaa !15
  %57 = getelementptr inbounds nuw i8, ptr %34, i64 64
  store double %56, ptr %57, align 8, !tbaa !283
  %58 = getelementptr inbounds nuw i8, ptr %35, i64 72
  %59 = load double, ptr %58, align 8, !tbaa !226
  %60 = getelementptr inbounds nuw i8, ptr %34, i64 72
  store double %59, ptr %60, align 8, !tbaa !284
  %61 = getelementptr inbounds nuw i8, ptr %35, i64 80
  %62 = load double, ptr %61, align 8, !tbaa !146
  %63 = getelementptr inbounds nuw i8, ptr %34, i64 80
  store double %62, ptr %63, align 8, !tbaa !285
  %64 = getelementptr inbounds nuw i8, ptr %35, i64 88
  %65 = load double, ptr %64, align 8, !tbaa !124
  %66 = getelementptr inbounds nuw i8, ptr %34, i64 88
  store double %65, ptr %66, align 8, !tbaa !286
  %67 = getelementptr inbounds nuw double, ptr %25, i64 %.017
  %68 = load double, ptr %67, align 8, !tbaa !40
  %69 = getelementptr inbounds nuw i8, ptr %34, i64 32
  store double %68, ptr %69, align 8, !tbaa !287
  %70 = add nuw i64 %.017, 1
  %exitcond.not = icmp eq i64 %70, %umax
  br i1 %exitcond.not, label %._crit_edge, label %33, !llvm.loop !288
}